; Function Attrs: mustprogress uwtable
define void @_ZN2cv4readERKNS_8FileNodeERii(ptr noundef nonnull readonly align 8 captures(none) dereferenceable(24) %0, ptr noundef nonnull writeonly align 4 captures(none) dereferenceable(4) initializes((0, 4)) %1, i32 noundef %2) local_unnamed_addr #25 {
  store i32 %2, ptr %1, align 4, !tbaa !19
  %4 = load ptr, ptr %0, align 8, !tbaa !250
  %5 = icmp eq ptr %4, null
  br i1 %5, label %22, label %_ZNK2cv8FileNode3ptrEv.exit.i

_ZNK2cv8FileNode3ptrEv.exit.i:                    ; preds = %3
  %6 = getelementptr inbounds nuw i8, ptr %0, i64 8
  %7 = load i64, ptr %6, align 8, !tbaa !253
  %8 = getelementptr inbounds nuw i8, ptr %0, i64 16
  %9 = load i64, ptr %8, align 8, !tbaa !254
  %10 = tail call noundef ptr @_ZNK2cv11FileStorage4Impl10getNodePtrEmm(ptr noundef nonnull align 8 dereferenceable(700) %4, i64 noundef %7, i64 noundef %9)
  %.not.i = icmp eq ptr %10, null
  br i1 %.not.i, label %_ZNK2cv8FileNodecviEv.exit, label %11

11:                                               ; preds = %_ZNK2cv8FileNode3ptrEv.exit.i
  %12 = load i8, ptr %10, align 1, !tbaa !5
  %13 = zext i8 %12 to i32
  %14 = and i32 %13, 7
  %15 = and i32 %13, 32
  %.not12.i = icmp eq i32 %15, 0
  %16 = select i1 %.not12.i, i64 1, i64 5
  %17 = getelementptr inbounds nuw i8, ptr %10, i64 %16
  switch i32 %14, label %_ZNK2cv8FileNodecviEv.exit [
    i32 1, label %18
    i32 2, label %19
  ]

18:                                               ; preds = %11
  %.val.i = load i32, ptr %17, align 1
  br label %_ZNK2cv8FileNodecviEv.exit

19:                                               ; preds = %11
  %.val13.i = load double, ptr %17, align 1
  %20 = insertelement <2 x double> poison, double %.val13.i, i64 0
  %21 = tail call noundef i32 @llvm.x86.sse2.cvtsd2si(<2 x double> %20)
  br label %_ZNK2cv8FileNodecviEv.exit

_ZNK2cv8FileNodecviEv.exit:                       ; preds = %_ZNK2cv8FileNode3ptrEv.exit.i, %11, %18, %19
  %.0.i = phi i32 [ 0, %_ZNK2cv8FileNode3ptrEv.exit.i ], [ %.val.i, %18 ], [ %21, %19 ], [ 2147483647, %11 ]
  store i32 %.0.i, ptr %1, align 4, !tbaa !19
  br label %22

22:                                               ; preds = %_ZNK2cv8FileNodecviEv.exit, %3
  ret void
}